; Function Attrs: mustprogress nounwind uwtable
define internal fastcc noundef nonnull align 8 dereferenceable(8) ptr @_ZN9grpc_core13RefCountedPtrINS_12_GLOBAL__N_128CircuitBreakerCallCounterMap11CallCounterEEaSEOS4_(ptr noundef nonnull returned align 8 dereferenceable(8) %0, ptr noundef nonnull align 8 captures(none) dereferenceable(8) %1) unnamed_addr #16 align 2 personality ptr @__gxx_personality_v0 {
  %3 = load ptr, ptr %1, align 8, !tbaa !283
  store ptr null, ptr %1, align 8, !tbaa !283
  %4 = load ptr, ptr %0, align 8, !tbaa !283
  store ptr %3, ptr %0, align 8, !tbaa !283
  %.not.i = icmp eq ptr %4, null
  br i1 %.not.i, label %_ZN9grpc_core13RefCountedPtrINS_12_GLOBAL__N_128CircuitBreakerCallCounterMap11CallCounterEE5resetEPS3_.exit, label %5

5:                                                ; preds = %2
  %6 = getelementptr inbounds nuw i8, ptr %4, i64 8
  %7 = atomicrmw sub ptr %6, i64 1 acq_rel, align 8
  %8 = icmp eq i64 %7, 1
  br i1 %8, label %9, label %_ZN9grpc_core13RefCountedPtrINS_12_GLOBAL__N_128CircuitBreakerCallCounterMap11CallCounterEE5resetEPS3_.exit, !prof !52

9:                                                ; preds = %5
  tail call void @_ZN9grpc_core12_GLOBAL__N_128CircuitBreakerCallCounterMap11CallCounterD2Ev(ptr noundef nonnull align 8 dereferenceable(88) %4) #37
  tail call void @_ZdlPvm(ptr noundef nonnull align 8 dereferenceable(16) %4, i64 noundef 88) #39
  br label %_ZN9grpc_core13RefCountedPtrINS_12_GLOBAL__N_128CircuitBreakerCallCounterMap11CallCounterEE5resetEPS3_.exit

_ZN9grpc_core13RefCountedPtrINS_12_GLOBAL__N_128CircuitBreakerCallCounterMap11CallCounterEE5resetEPS3_.exit: ; preds = %9, %5, %2
  ret ptr %0
}